target datalayout = "e-m:e-p270:32:32-p271:32:32-p272:64:64-i64:64-i128:128-f80:128-n8:16:32:64-S128"
target triple = "x86_64-pc-linux-gnu"

@.str.1 = private unnamed_addr constant [2 x i8] c"-\00", align 1

; Function Attrs: mustprogress nounwind uwtable
define hidden void @_ZNK11mpn_manager8trace_nlEPKjj(ptr noundef nonnull align 1 dereferenceable(1) %0, ptr noundef %1, i32 noundef %2) #6 align 2 {
  %4 = alloca ptr, align 8
  %5 = alloca ptr, align 8
  %6 = alloca i32, align 4
  store ptr %0, ptr %4, align 8, !tbaa !3
  store ptr %1, ptr %5, align 8, !tbaa !8
  store i32 %2, ptr %6, align 4, !tbaa !10
  ret void
}

; Function Attrs: inlinehint mustprogress nounwind uwtable
define linkonce_odr noundef nonnull align 4 dereferenceable(4) ptr @_ZSt3maxIjERKT_S2_S2_(ptr noundef nonnull align 4 dereferenceable(4) %0, ptr noundef nonnull align 4 dereferenceable(4) %1) #7 comdat {
  %3 = alloca ptr, align 8
  %4 = alloca ptr, align 8
  %5 = alloca ptr, align 8
  store ptr %0, ptr %4, align 8, !tbaa !8
  store ptr %1, ptr %5, align 8, !tbaa !8
  %6 = load ptr, ptr %4, align 8, !tbaa !8
  %7 = load i32, ptr %6, align 4, !tbaa !10
  %8 = load ptr, ptr %5, align 8, !tbaa !8
  %9 = load i32, ptr %8, align 4, !tbaa !10
  %10 = icmp ult i32 %7, %9
  br i1 %10, label %11, label %13

11:                                               ; preds = %2
  %12 = load ptr, ptr %5, align 8, !tbaa !8
  store ptr %12, ptr %3, align 8
  br label %15

13:                                               ; preds = %2
  %14 = load ptr, ptr %4, align 8, !tbaa !8
  store ptr %14, ptr %3, align 8
  br label %15

15:                                               ; preds = %13, %11
  %16 = load ptr, ptr %3, align 8
  ret ptr %16
}

; Function Attrs: mustprogress nounwind uwtable
define hidden void @_ZNK11mpn_manager5traceEPKjjS1_jPKc(ptr noundef nonnull align 1 dereferenceable(1) %0, ptr noundef %1, i32 noundef %2, ptr noundef %3, i32 noundef %4, ptr noundef %5) #6 align 2 {
  %7 = alloca ptr, align 8
  %8 = alloca ptr, align 8
  %9 = alloca i32, align 4
  %10 = alloca ptr, align 8
  %11 = alloca i32, align 4
  %12 = alloca ptr, align 8
  store ptr %0, ptr %7, align 8, !tbaa !3
  store ptr %1, ptr %8, align 8, !tbaa !8
  store i32 %2, ptr %9, align 4, !tbaa !10
  store ptr %3, ptr %10, align 8, !tbaa !8
  store i32 %4, ptr %11, align 4, !tbaa !10
  store ptr %5, ptr %12, align 8, !tbaa !20
  ret void
}

; Function Attrs: mustprogress uwtable
define hidden noundef zeroext i1 @_ZNK11mpn_manager3subEPKjjS1_jPjS2_(ptr noundef nonnull align 1 dereferenceable(1) %0, ptr noundef %1, i32 noundef %2, ptr noundef %3, i32 noundef %4, ptr noundef %5, ptr noundef %6) #4 align 2 {
  %8 = alloca ptr, align 8
  %9 = alloca ptr, align 8
  %10 = alloca i32, align 4
  %11 = alloca ptr, align 8
  %12 = alloca i32, align 4
  %13 = alloca ptr, align 8
  %14 = alloca ptr, align 8
  %15 = alloca i32, align 4
  %16 = alloca ptr, align 8
  %17 = alloca i32, align 4
  %18 = alloca i8, align 1
  %19 = alloca i8, align 1
  %20 = alloca i32, align 4
  %21 = alloca i32, align 4
  %22 = alloca i32, align 4
  store ptr %0, ptr %8, align 8, !tbaa !3
  store ptr %1, ptr %9, align 8, !tbaa !8
  store i32 %2, ptr %10, align 4, !tbaa !10
  store ptr %3, ptr %11, align 8, !tbaa !8
  store i32 %4, ptr %12, align 4, !tbaa !10
  store ptr %5, ptr %13, align 8, !tbaa !8
  store ptr %6, ptr %14, align 8, !tbaa !8
  %23 = load ptr, ptr %8, align 8
  %24 = load ptr, ptr %9, align 8, !tbaa !8
  %25 = load i32, ptr %10, align 4, !tbaa !10
  %26 = load ptr, ptr %11, align 8, !tbaa !8
  %27 = load i32, ptr %12, align 4, !tbaa !10
  call void @_ZNK11mpn_manager5traceEPKjjS1_jPKc(ptr noundef nonnull align 1 dereferenceable(1) %23, ptr noundef %24, i32 noundef %25, ptr noundef %26, i32 noundef %27, ptr noundef @.str.1)
  call void @llvm.lifetime.start.p0(i64 4, ptr %15) #3
  %28 = call noundef nonnull align 4 dereferenceable(4) ptr @_ZSt3maxIjERKT_S2_S2_(ptr noundef nonnull align 4 dereferenceable(4) %10, ptr noundef nonnull align 4 dereferenceable(4) %12)
  %29 = load i32, ptr %28, align 4, !tbaa !10
  store i32 %29, ptr %15, align 4, !tbaa !10
  call void @llvm.lifetime.start.p0(i64 8, ptr %16) #3
  %30 = load ptr, ptr %14, align 8, !tbaa !8
  store ptr %30, ptr %16, align 8, !tbaa !8
  %31 = load ptr, ptr %16, align 8, !tbaa !8
  store i32 0, ptr %31, align 4, !tbaa !10
  call void @llvm.lifetime.start.p0(i64 4, ptr %17) #3
  call void @llvm.lifetime.start.p0(i64 1, ptr %18) #3
  call void @llvm.lifetime.start.p0(i64 1, ptr %19) #3
  call void @llvm.lifetime.start.p0(i64 4, ptr %20) #3
  store i32 0, ptr %20, align 4, !tbaa !10
  br label %32

32:                                               ; preds = %93, %7
  %33 = load i32, ptr %20, align 4, !tbaa !10
  %34 = load i32, ptr %15, align 4, !tbaa !10
  %35 = icmp ult i32 %33, %34
  br i1 %35, label %37, label %36

36:                                               ; preds = %32
  call void @llvm.lifetime.end.p0(i64 4, ptr %20) #3
  br label %96

37:                                               ; preds = %32
  call void @llvm.lifetime.start.p0(i64 4, ptr %21) #3
  %38 = load i32, ptr %20, align 4, !tbaa !10
  %39 = load i32, ptr %10, align 4, !tbaa !10
  %40 = icmp ult i32 %38, %39
  br i1 %40, label %41, label %47

41:                                               ; preds = %37
  %42 = load ptr, ptr %9, align 8, !tbaa !8
  %43 = load i32, ptr %20, align 4, !tbaa !10
  %44 = zext i32 %43 to i64
  %45 = getelementptr inbounds nuw i32, ptr %42, i64 %44
  %46 = load i32, ptr %45, align 4, !tbaa !10
  br label %48

47:                                               ; preds = %37
  br label %48

48:                                               ; preds = %47, %41
  %49 = phi i32 [ %46, %41 ], [ 0, %47 ]
  store i32 %49, ptr %21, align 4, !tbaa !10
  call void @llvm.lifetime.start.p0(i64 4, ptr %22) #3
  %50 = load i32, ptr %20, align 4, !tbaa !10
  %51 = load i32, ptr %12, align 4, !tbaa !10
  %52 = icmp ult i32 %50, %51
  br i1 %52, label %53, label %59

53:                                               ; preds = %48
  %54 = load ptr, ptr %11, align 8, !tbaa !8
  %55 = load i32, ptr %20, align 4, !tbaa !10
  %56 = zext i32 %55 to i64
  %57 = getelementptr inbounds nuw i32, ptr %54, i64 %56
  %58 = load i32, ptr %57, align 4, !tbaa !10
  br label %60

59:                                               ; preds = %48
  br label %60

60:                                               ; preds = %59, %53
  %61 = phi i32 [ %58, %53 ], [ 0, %59 ]
  store i32 %61, ptr %22, align 4, !tbaa !10
  %62 = load i32, ptr %21, align 4, !tbaa !10
  %63 = load i32, ptr %22, align 4, !tbaa !10
  %64 = sub i32 %62, %63
  store i32 %64, ptr %17, align 4, !tbaa !10
  %65 = load i32, ptr %17, align 4, !tbaa !10
  %66 = load i32, ptr %21, align 4, !tbaa !10
  %67 = icmp ugt i32 %65, %66
  %68 = zext i1 %67 to i8
  store i8 %68, ptr %18, align 1, !tbaa !14
  %69 = load i32, ptr %17, align 4, !tbaa !10
  %70 = load ptr, ptr %16, align 8, !tbaa !8
  %71 = load i32, ptr %70, align 4, !tbaa !10
  %72 = sub i32 %69, %71
  %73 = load ptr, ptr %13, align 8, !tbaa !8
  %74 = load i32, ptr %20, align 4, !tbaa !10
  %75 = zext i32 %74 to i64
  %76 = getelementptr inbounds nuw i32, ptr %73, i64 %75
  store i32 %72, ptr %76, align 4, !tbaa !10
  %77 = load ptr, ptr %13, align 8, !tbaa !8
  %78 = load i32, ptr %20, align 4, !tbaa !10
  %79 = zext i32 %78 to i64
  %80 = getelementptr inbounds nuw i32, ptr %77, i64 %79
  %81 = load i32, ptr %80, align 4, !tbaa !10
  %82 = load i32, ptr %17, align 4, !tbaa !10
  %83 = icmp ugt i32 %81, %82
  %84 = zext i1 %83 to i8
  store i8 %84, ptr %19, align 1, !tbaa !14
  %85 = load i8, ptr %18, align 1, !tbaa !14, !range !16, !noundef !17
  %86 = trunc i8 %85 to i1
  %87 = zext i1 %86 to i32
  %88 = load i8, ptr %19, align 1, !tbaa !14, !range !16, !noundef !17
  %89 = trunc i8 %88 to i1
  %90 = zext i1 %89 to i32
  %91 = or i32 %87, %90
  %92 = load ptr, ptr %16, align 8, !tbaa !8
  store i32 %91, ptr %92, align 4, !tbaa !10
  call void @llvm.lifetime.end.p0(i64 4, ptr %22) #3
  call void @llvm.lifetime.end.p0(i64 4, ptr %21) #3
  br label %93

93:                                               ; preds = %60
  %94 = load i32, ptr %20, align 4, !tbaa !10
  %95 = add i32 %94, 1
  store i32 %95, ptr %20, align 4, !tbaa !10
  br label %32, !llvm.loop !22

96:                                               ; preds = %36
  %97 = load ptr, ptr %13, align 8, !tbaa !8
  %98 = load i32, ptr %10, align 4, !tbaa !10
  call void @_ZNK11mpn_manager8trace_nlEPKjj(ptr noundef nonnull align 1 dereferenceable(1) %23, ptr noundef %97, i32 noundef %98)
  call void @llvm.lifetime.end.p0(i64 1, ptr %19) #3
  call void @llvm.lifetime.end.p0(i64 1, ptr %18) #3
  call void @llvm.lifetime.end.p0(i64 4, ptr %17) #3
  call void @llvm.lifetime.end.p0(i64 8, ptr %16) #3
  call void @llvm.lifetime.end.p0(i64 4, ptr %15) #3
  ret i1 true
}