; Function Attrs: mustprogress nofree norecurse nosync nounwind memory(argmem: readwrite) uwtable
define hidden noundef zeroext i1 @_ZNK11mpn_manager3subEPKjjS1_jPjS2_(ptr noundef nonnull readnone align 1 captures(none) dereferenceable(1) %0, ptr noundef readonly captures(none) %1, i32 noundef %2, ptr noundef readonly captures(none) %3, i32 noundef %4, ptr noundef writeonly captures(none) %5, ptr noundef writeonly captures(none) initializes((0, 4)) %6) local_unnamed_addr #6 align 2 {
  %.sroa.speculated = tail call i32 @llvm.umax.i32(i32 %2, i32 %4)
  store i32 0, ptr %6, align 4, !tbaa !3
  %.not = icmp eq i32 %.sroa.speculated, 0
  br i1 %.not, label %._crit_edge, label %.lr.ph.preheader

.lr.ph.preheader:                                 ; preds = %7
  %8 = zext i32 %2 to i64
  %9 = zext i32 %4 to i64
  %wide.trip.count = zext i32 %.sroa.speculated to i64
  br label %.lr.ph

._crit_edge:                                      ; preds = %21, %7
  ret i1 true

.lr.ph:                                           ; preds = %.lr.ph.preheader, %21
  %10 = phi i32 [ 0, %.lr.ph.preheader ], [ %29, %21 ]
  %indvars.iv = phi i64 [ 0, %.lr.ph.preheader ], [ %indvars.iv.next, %21 ]
  %11 = icmp samesign ult i64 %indvars.iv, %8
  br i1 %11, label %12, label %15

12:                                               ; preds = %.lr.ph
  %13 = getelementptr inbounds nuw i32, ptr %1, i64 %indvars.iv
  %14 = load i32, ptr %13, align 4, !tbaa !3
  br label %15

15:                                               ; preds = %.lr.ph, %12
  %16 = phi i32 [ %14, %12 ], [ 0, %.lr.ph ]
  %17 = icmp samesign ult i64 %indvars.iv, %9
  br i1 %17, label %18, label %21

18:                                               ; preds = %15
  %19 = getelementptr inbounds nuw i32, ptr %3, i64 %indvars.iv
  %20 = load i32, ptr %19, align 4, !tbaa !3
  br label %21

21:                                               ; preds = %15, %18
  %22 = phi i32 [ %20, %18 ], [ 0, %15 ]
  %23 = sub i32 %16, %22
  %24 = icmp ugt i32 %22, %16
  %25 = sub i32 %23, %10
  %26 = getelementptr inbounds nuw i32, ptr %5, i64 %indvars.iv
  store i32 %25, ptr %26, align 4, !tbaa !3
  %27 = icmp ugt i32 %10, %23
  %28 = or i1 %24, %27
  %29 = zext i1 %28 to i32
  store i32 %29, ptr %6, align 4, !tbaa !3
  %indvars.iv.next = add nuw nsw i64 %indvars.iv, 1
  %exitcond.not = icmp eq i64 %indvars.iv.next, %wide.trip.count
  br i1 %exitcond.not, label %._crit_edge, label %.lr.ph, !llvm.loop !11
}